target datalayout = "e-m:e-p270:32:32-p271:32:32-p272:64:64-i64:64-i128:128-f80:128-n8:16:32:64-S128"
target triple = "x86_64-pc-linux-gnu"

@FLAC__SUBFRAME_LPC_QLP_SHIFT_LEN = external constant i32, align 4

; Function Attrs: nounwind sspstrong uwtable
define hidden i32 @FLAC__lpc_quantize_coefficients(ptr noundef %0, i32 noundef %1, i32 noundef %2, ptr noundef %3, ptr noundef %4) #0 {
  %6 = alloca i32, align 4
  %7 = alloca ptr, align 8
  %8 = alloca i32, align 4
  %9 = alloca i32, align 4
  %10 = alloca ptr, align 8
  %11 = alloca ptr, align 8
  %12 = alloca i32, align 4
  %13 = alloca double, align 8
  %14 = alloca i32, align 4
  %15 = alloca i32, align 4
  %16 = alloca double, align 8
  %17 = alloca i32, align 4
  %18 = alloca i32, align 4
  %19 = alloca i32, align 4
  %20 = alloca i32, align 4
  %21 = alloca double, align 8
  %22 = alloca i32, align 4
  %23 = alloca i32, align 4
  %24 = alloca double, align 8
  %25 = alloca i32, align 4
  store ptr %0, ptr %7, align 8, !tbaa !8
  store i32 %1, ptr %8, align 4, !tbaa !10
  store i32 %2, ptr %9, align 4, !tbaa !10
  store ptr %3, ptr %10, align 8, !tbaa !3
  store ptr %4, ptr %11, align 8, !tbaa !3
  call void @llvm.lifetime.start.p0(i64 4, ptr %12) #5
  call void @llvm.lifetime.start.p0(i64 8, ptr %13) #5
  call void @llvm.lifetime.start.p0(i64 4, ptr %14) #5
  call void @llvm.lifetime.start.p0(i64 4, ptr %15) #5
  %26 = load i32, ptr %9, align 4, !tbaa !10
  %27 = add i32 %26, -1
  store i32 %27, ptr %9, align 4, !tbaa !10
  %28 = load i32, ptr %9, align 4, !tbaa !10
  %29 = shl i32 1, %28
  store i32 %29, ptr %14, align 4, !tbaa !10
  %30 = load i32, ptr %14, align 4, !tbaa !10
  %31 = sub nsw i32 0, %30
  store i32 %31, ptr %15, align 4, !tbaa !10
  %32 = load i32, ptr %14, align 4, !tbaa !10
  %33 = add nsw i32 %32, -1
  store i32 %33, ptr %14, align 4, !tbaa !10
  store double 0.000000e+00, ptr %13, align 8, !tbaa !27
  store i32 0, ptr %12, align 4, !tbaa !10
  br label %34

34:                                               ; preds = %52, %5
  %35 = load i32, ptr %12, align 4, !tbaa !10
  %36 = load i32, ptr %8, align 4, !tbaa !10
  %37 = icmp ult i32 %35, %36
  br i1 %37, label %38, label %55

38:                                               ; preds = %34
  call void @llvm.lifetime.start.p0(i64 8, ptr %16) #5
  %39 = load ptr, ptr %7, align 8, !tbaa !8
  %40 = load i32, ptr %12, align 4, !tbaa !10
  %41 = zext i32 %40 to i64
  %42 = getelementptr inbounds nuw float, ptr %39, i64 %41
  %43 = load float, ptr %42, align 4, !tbaa !12
  %44 = fpext reassoc nsz arcp float %43 to double
  %45 = call reassoc nsz arcp double @llvm.fabs.f64(double %44)
  store double %45, ptr %16, align 8, !tbaa !27
  %46 = load double, ptr %16, align 8, !tbaa !27
  %47 = load double, ptr %13, align 8, !tbaa !27
  %48 = fcmp reassoc nsz arcp ogt double %46, %47
  br i1 %48, label %49, label %51

49:                                               ; preds = %38
  %50 = load double, ptr %16, align 8, !tbaa !27
  store double %50, ptr %13, align 8, !tbaa !27
  br label %51

51:                                               ; preds = %49, %38
  call void @llvm.lifetime.end.p0(i64 8, ptr %16) #5
  br label %52

52:                                               ; preds = %51
  %53 = load i32, ptr %12, align 4, !tbaa !10
  %54 = add i32 %53, 1
  store i32 %54, ptr %12, align 4, !tbaa !10
  br label %34, !llvm.loop !53

55:                                               ; preds = %34
  %56 = load double, ptr %13, align 8, !tbaa !27
  %57 = fcmp reassoc nsz arcp ole double %56, 0.000000e+00
  br i1 %57, label %58, label %59

58:                                               ; preds = %55
  store i32 2, ptr %6, align 4
  store i32 1, ptr %17, align 4
  br label %198

59:                                               ; preds = %55
  call void @llvm.lifetime.start.p0(i64 4, ptr %18) #5
  %60 = load i32, ptr @FLAC__SUBFRAME_LPC_QLP_SHIFT_LEN, align 4, !tbaa !10
  %61 = sub i32 %60, 1
  %62 = shl i32 1, %61
  %63 = sub nsw i32 %62, 1
  store i32 %63, ptr %18, align 4, !tbaa !10
  call void @llvm.lifetime.start.p0(i64 4, ptr %19) #5
  %64 = load i32, ptr %18, align 4, !tbaa !10
  %65 = sub nsw i32 0, %64
  %66 = sub nsw i32 %65, 1
  store i32 %66, ptr %19, align 4, !tbaa !10
  call void @llvm.lifetime.start.p0(i64 4, ptr %20) #5
  %67 = load double, ptr %13, align 8, !tbaa !27
  %68 = call reassoc nsz arcp double @frexp(double noundef %67, ptr noundef %20) #5
  %69 = load i32, ptr %20, align 4, !tbaa !10
  %70 = add nsw i32 %69, -1
  store i32 %70, ptr %20, align 4, !tbaa !10
  %71 = load i32, ptr %9, align 4, !tbaa !10
  %72 = load i32, ptr %20, align 4, !tbaa !10
  %73 = sub nsw i32 %71, %72
  %74 = sub nsw i32 %73, 1
  %75 = load ptr, ptr %11, align 8, !tbaa !3
  store i32 %74, ptr %75, align 4, !tbaa !10
  %76 = load ptr, ptr %11, align 8, !tbaa !3
  %77 = load i32, ptr %76, align 4, !tbaa !10
  %78 = load i32, ptr %18, align 4, !tbaa !10
  %79 = icmp sgt i32 %77, %78
  br i1 %79, label %80, label %83

80:                                               ; preds = %59
  %81 = load i32, ptr %18, align 4, !tbaa !10
  %82 = load ptr, ptr %11, align 8, !tbaa !3
  store i32 %81, ptr %82, align 4, !tbaa !10
  br label %90

83:                                               ; preds = %59
  %84 = load ptr, ptr %11, align 8, !tbaa !3
  %85 = load i32, ptr %84, align 4, !tbaa !10
  %86 = load i32, ptr %19, align 4, !tbaa !10
  %87 = icmp slt i32 %85, %86
  br i1 %87, label %88, label %89

88:                                               ; preds = %83
  store i32 1, ptr %6, align 4
  store i32 1, ptr %17, align 4
  br label %91

89:                                               ; preds = %83
  br label %90

90:                                               ; preds = %89, %80
  store i32 0, ptr %17, align 4
  br label %91

91:                                               ; preds = %90, %88
  call void @llvm.lifetime.end.p0(i64 4, ptr %20) #5
  call void @llvm.lifetime.end.p0(i64 4, ptr %19) #5
  call void @llvm.lifetime.end.p0(i64 4, ptr %18) #5
  %92 = load i32, ptr %17, align 4
  switch i32 %92, label %198 [
    i32 0, label %93
  ]

93:                                               ; preds = %91
  br label %94

94:                                               ; preds = %93
  %95 = load ptr, ptr %11, align 8, !tbaa !3
  %96 = load i32, ptr %95, align 4, !tbaa !10
  %97 = icmp sge i32 %96, 0
  br i1 %97, label %98, label %146

98:                                               ; preds = %94
  call void @llvm.lifetime.start.p0(i64 8, ptr %21) #5
  store double 0.000000e+00, ptr %21, align 8, !tbaa !27
  call void @llvm.lifetime.start.p0(i64 4, ptr %22) #5
  store i32 0, ptr %12, align 4, !tbaa !10
  br label %99

99:                                               ; preds = %142, %98
  %100 = load i32, ptr %12, align 4, !tbaa !10
  %101 = load i32, ptr %8, align 4, !tbaa !10
  %102 = icmp ult i32 %100, %101
  br i1 %102, label %103, label %145

103:                                              ; preds = %99
  %104 = load ptr, ptr %7, align 8, !tbaa !8
  %105 = load i32, ptr %12, align 4, !tbaa !10
  %106 = zext i32 %105 to i64
  %107 = getelementptr inbounds nuw float, ptr %104, i64 %106
  %108 = load float, ptr %107, align 4, !tbaa !12
  %109 = load ptr, ptr %11, align 8, !tbaa !3
  %110 = load i32, ptr %109, align 4, !tbaa !10
  %111 = shl i32 1, %110
  %112 = sitofp i32 %111 to float
  %113 = fmul reassoc nsz arcp float %108, %112
  %114 = fpext reassoc nsz arcp float %113 to double
  %115 = load double, ptr %21, align 8, !tbaa !27
  %116 = fadd reassoc nsz arcp double %115, %114
  store double %116, ptr %21, align 8, !tbaa !27
  %117 = load double, ptr %21, align 8, !tbaa !27
  %118 = call i64 @lround(double noundef %117) #5, !tbaa !10
  %119 = trunc i64 %118 to i32
  store i32 %119, ptr %22, align 4, !tbaa !10
  %120 = load i32, ptr %22, align 4, !tbaa !10
  %121 = load i32, ptr %14, align 4, !tbaa !10
  %122 = icmp sgt i32 %120, %121
  br i1 %122, label %123, label %125

123:                                              ; preds = %103
  %124 = load i32, ptr %14, align 4, !tbaa !10
  store i32 %124, ptr %22, align 4, !tbaa !10
  br label %132

125:                                              ; preds = %103
  %126 = load i32, ptr %22, align 4, !tbaa !10
  %127 = load i32, ptr %15, align 4, !tbaa !10
  %128 = icmp slt i32 %126, %127
  br i1 %128, label %129, label %131

129:                                              ; preds = %125
  %130 = load i32, ptr %15, align 4, !tbaa !10
  store i32 %130, ptr %22, align 4, !tbaa !10
  br label %131

131:                                              ; preds = %129, %125
  br label %132

132:                                              ; preds = %131, %123
  %133 = load i32, ptr %22, align 4, !tbaa !10
  %134 = sitofp i32 %133 to double
  %135 = load double, ptr %21, align 8, !tbaa !27
  %136 = fsub reassoc nsz arcp double %135, %134
  store double %136, ptr %21, align 8, !tbaa !27
  %137 = load i32, ptr %22, align 4, !tbaa !10
  %138 = load ptr, ptr %10, align 8, !tbaa !3
  %139 = load i32, ptr %12, align 4, !tbaa !10
  %140 = zext i32 %139 to i64
  %141 = getelementptr inbounds nuw i32, ptr %138, i64 %140
  store i32 %137, ptr %141, align 4, !tbaa !10
  br label %142

142:                                              ; preds = %132
  %143 = load i32, ptr %12, align 4, !tbaa !10
  %144 = add i32 %143, 1
  store i32 %144, ptr %12, align 4, !tbaa !10
  br label %99, !llvm.loop !54

145:                                              ; preds = %99
  call void @llvm.lifetime.end.p0(i64 4, ptr %22) #5
  call void @llvm.lifetime.end.p0(i64 8, ptr %21) #5
  br label %197

146:                                              ; preds = %94
  call void @llvm.lifetime.start.p0(i64 4, ptr %23) #5
  %147 = load ptr, ptr %11, align 8, !tbaa !3
  %148 = load i32, ptr %147, align 4, !tbaa !10
  %149 = sub nsw i32 0, %148
  store i32 %149, ptr %23, align 4, !tbaa !10
  call void @llvm.lifetime.start.p0(i64 8, ptr %24) #5
  store double 0.000000e+00, ptr %24, align 8, !tbaa !27
  call void @llvm.lifetime.start.p0(i64 4, ptr %25) #5
  store i32 0, ptr %12, align 4, !tbaa !10
  br label %150

150:                                              ; preds = %192, %146
  %151 = load i32, ptr %12, align 4, !tbaa !10
  %152 = load i32, ptr %8, align 4, !tbaa !10
  %153 = icmp ult i32 %151, %152
  br i1 %153, label %154, label %195

154:                                              ; preds = %150
  %155 = load ptr, ptr %7, align 8, !tbaa !8
  %156 = load i32, ptr %12, align 4, !tbaa !10
  %157 = zext i32 %156 to i64
  %158 = getelementptr inbounds nuw float, ptr %155, i64 %157
  %159 = load float, ptr %158, align 4, !tbaa !12
  %160 = load i32, ptr %23, align 4, !tbaa !10
  %161 = shl i32 1, %160
  %162 = sitofp i32 %161 to float
  %163 = fdiv reassoc nsz arcp float %159, %162
  %164 = fpext reassoc nsz arcp float %163 to double
  %165 = load double, ptr %24, align 8, !tbaa !27
  %166 = fadd reassoc nsz arcp double %165, %164
  store double %166, ptr %24, align 8, !tbaa !27
  %167 = load double, ptr %24, align 8, !tbaa !27
  %168 = call i64 @lround(double noundef %167) #5, !tbaa !10
  %169 = trunc i64 %168 to i32
  store i32 %169, ptr %25, align 4, !tbaa !10
  %170 = load i32, ptr %25, align 4, !tbaa !10
  %171 = load i32, ptr %14, align 4, !tbaa !10
  %172 = icmp sgt i32 %170, %171
  br i1 %172, label %173, label %175

173:                                              ; preds = %154
  %174 = load i32, ptr %14, align 4, !tbaa !10
  store i32 %174, ptr %25, align 4, !tbaa !10
  br label %182

175:                                              ; preds = %154
  %176 = load i32, ptr %25, align 4, !tbaa !10
  %177 = load i32, ptr %15, align 4, !tbaa !10
  %178 = icmp slt i32 %176, %177
  br i1 %178, label %179, label %181

179:                                              ; preds = %175
  %180 = load i32, ptr %15, align 4, !tbaa !10
  store i32 %180, ptr %25, align 4, !tbaa !10
  br label %181

181:                                              ; preds = %179, %175
  br label %182

182:                                              ; preds = %181, %173
  %183 = load i32, ptr %25, align 4, !tbaa !10
  %184 = sitofp i32 %183 to double
  %185 = load double, ptr %24, align 8, !tbaa !27
  %186 = fsub reassoc nsz arcp double %185, %184
  store double %186, ptr %24, align 8, !tbaa !27
  %187 = load i32, ptr %25, align 4, !tbaa !10
  %188 = load ptr, ptr %10, align 8, !tbaa !3
  %189 = load i32, ptr %12, align 4, !tbaa !10
  %190 = zext i32 %189 to i64
  %191 = getelementptr inbounds nuw i32, ptr %188, i64 %190
  store i32 %187, ptr %191, align 4, !tbaa !10
  br label %192

192:                                              ; preds = %182
  %193 = load i32, ptr %12, align 4, !tbaa !10
  %194 = add i32 %193, 1
  store i32 %194, ptr %12, align 4, !tbaa !10
  br label %150, !llvm.loop !55

195:                                              ; preds = %150
  %196 = load ptr, ptr %11, align 8, !tbaa !3
  store i32 0, ptr %196, align 4, !tbaa !10
  call void @llvm.lifetime.end.p0(i64 4, ptr %25) #5
  call void @llvm.lifetime.end.p0(i64 8, ptr %24) #5
  call void @llvm.lifetime.end.p0(i64 4, ptr %23) #5
  br label %197

197:                                              ; preds = %195, %145
  store i32 0, ptr %6, align 4
  store i32 1, ptr %17, align 4
  br label %198

198:                                              ; preds = %197, %91, %58
  call void @llvm.lifetime.end.p0(i64 4, ptr %15) #5
  call void @llvm.lifetime.end.p0(i64 4, ptr %14) #5
  call void @llvm.lifetime.end.p0(i64 8, ptr %13) #5
  call void @llvm.lifetime.end.p0(i64 4, ptr %12) #5
  %199 = load i32, ptr %6, align 4
  ret i32 %199
}